target datalayout = "e-m:e-p270:32:32-p271:32:32-p272:64:64-i64:64-i128:128-f80:128-n8:16:32:64-S128"
target triple = "x86_64-pc-linux-gnu"

; Function Attrs: nounwind uwtable
define i32 @EVP_CipherInit(ptr noundef %0, ptr noundef %1, ptr noundef %2, ptr noundef %3, i32 noundef %4) #0 {
  %6 = alloca ptr, align 8
  %7 = alloca ptr, align 8
  %8 = alloca ptr, align 8
  %9 = alloca ptr, align 8
  %10 = alloca i32, align 4
  store ptr %0, ptr %6, align 8, !tbaa !3
  store ptr %1, ptr %7, align 8, !tbaa !27
  store ptr %2, ptr %8, align 8, !tbaa !32
  store ptr %3, ptr %9, align 8, !tbaa !32
  store i32 %4, ptr %10, align 4, !tbaa !29
  %11 = load ptr, ptr %7, align 8, !tbaa !27
  %12 = icmp ne ptr %11, null
  br i1 %12, label %13, label %16

13:                                               ; preds = %5
  %14 = load ptr, ptr %6, align 8, !tbaa !3
  %15 = call i32 @EVP_CIPHER_CTX_reset(ptr noundef %14)
  br label %16

16:                                               ; preds = %13, %5
  %17 = load ptr, ptr %6, align 8, !tbaa !3
  %18 = load ptr, ptr %7, align 8, !tbaa !27
  %19 = load ptr, ptr %8, align 8, !tbaa !32
  %20 = load ptr, ptr %9, align 8, !tbaa !32
  %21 = load i32, ptr %10, align 4, !tbaa !29
  %22 = call i32 @evp_cipher_init_internal(ptr noundef %17, ptr noundef %18, ptr noundef null, ptr noundef %19, ptr noundef %20, i32 noundef %21, i8 noundef zeroext 0, ptr noundef null)
  ret i32 %22
}