; Function Attrs: nounwind uwtable
define i32 @EVP_CipherInit(ptr noundef %0, ptr noundef %1, ptr noundef %2, ptr noundef %3, i32 noundef %4) local_unnamed_addr #0 {
  %.not = icmp eq ptr %1, null
  br i1 %.not, label %.split, label %.split7

.split7:                                          ; preds = %5
  %6 = tail call i32 @EVP_CIPHER_CTX_reset(ptr noundef %0)
  br label %.split

.split:                                           ; preds = %5, %.split7
  %.sink = phi ptr [ %1, %.split7 ], [ null, %5 ]
  %7 = tail call fastcc i32 @evp_cipher_init_internal(ptr noundef %0, ptr noundef %.sink, ptr noundef null, ptr noundef %2, ptr noundef %3, i32 noundef %4, i8 noundef zeroext 0, ptr noundef null)
  ret i32 %7
}